(dp0
S'gll_iem_v05'
p1
(lp2
F648.783575580724
aF555.5313289877697
aF474.33605786908225
aF406.4677627493679
aF346.9133129330838
aF293.6517529922663
aF247.364167593036
aF208.54992969904364
aF176.4675063696317
aF148.8885720407061
aF125.61886288751427
aF106.87142373482544
aF91.23857823932471
aF78.03744868864295
aF66.88578244321019
aF57.36432395726047
aF49.19968037722151
aF42.192743505914564
aF36.12291728563998
aF30.863395059718027
aF26.54617096730351
aF22.992113449227194
aF19.874368649357976
aF17.234081221812104
aF15.038686719499845
aF13.157078803297246
aF11.543518811283091
aF10.14442331982707
aF8.903116286451603
aF7.805224458465154
aF6.837267562170519
aF5.987666414501306
aF5.246787817748151
aF4.608692658756993
aF4.057095836274379
aF3.572614501513935
aF3.1466003521420247
aF2.7716192898069174
aF2.441498713652847
aF2.1577449229130568
aF1.9143879570920623
aF1.698935536879114
aF1.5067725491933117
aF1.3371009489350618
aF1.1882890205300125
aF1.0563609245886747
aF0.9393764266875982
aF0.8346227590820545
aF0.7360284822621018
aF0.6434397871775023
asS'Box_Component'
p3
(lp4
F0.0
aF0.0
aF0.0
aF0.0
aF0.0
aF0.0
aF0.0
aF0.0
aF0.0
aF0.0
aF0.0
aF0.0
aF0.0
aF0.0
aF0.0
aF0.0
aF0.0
aF0.0
aF0.0
aF0.0
aF0.0
aF0.0
aF0.0
aF0.0
aF0.0
aF0.0
aF0.0
aF0.0
aF0.0
aF0.0
aF0.0
aF0.0
aF0.0
aF0.0
aF0.0
aF0.0
aF0.0
aF0.0
aF0.0
aF0.0
aF0.0
aF0.0
aF0.0
aF0.0
aF0.0
aF0.0
aF0.0
aF0.0
aF0.0
aF0.0
asS'3FGL J1745.3-2903c'
p5
(lp6
F45.585821040392375
aF33.208725059653105
aF24.326494216203788
aF17.88163512720417
aF13.109752788452836
aF9.54372087689839
aF6.912529231259681
aF5.0103530649294195
aF3.6454793704286477
aF2.6446324526177487
aF1.9143642961637293
aF1.3947135648390758
aF1.0191952671010542
aF0.7455957959785716
aF0.5457137366638017
aF0.3992836115816967
aF0.2921504716473457
aF0.21376000794371564
aF0.15617196527444263
aF0.1137369871302004
aF0.08268688684146826
aF0.06004380657849028
aF0.043511678108325784
aF0.031502185168611745
aF0.022835499504444946
aF0.016591916326526117
aF0.012065387692294054
aF0.008762047466421315
aF0.006348626699442611
aF0.004596745554194996
aF0.0033285443663725552
aF0.0024105116387379572
aF0.0017455912086922533
aF0.001264743171824689
aF0.0009172054388750183
aF0.0006652721863654573
aF0.0004823500949074755
aF0.0003495191730615415
aF0.00025325102005526324
aF0.00018363690514074522
aF0.00013330349315659884
aF9.676522818354296e-05
aF6.997391494804937e-05
aF5.033540405038974e-05
aF3.620366932866925e-05
aF2.6040749531277093e-05
aF1.8732981777533426e-05
aF1.3463257018170808e-05
aF9.60762827199242e-06
aF6.794903413029836e-06
asS'1FIG J1748.2-2816'
p7
(lp8
F33.757233659779814
aF27.316178311701837
aF22.203807491404582
aF18.086721405102196
aF14.686080738395892
aF11.841852751579491
aF9.500198987413055
aF7.628698477180378
aF6.144335182619579
aF4.922876156708167
aF3.9335554825647976
aF3.1638355825027524
aF2.5520595836667215
aF2.0601138193982496
aF1.6613830545183992
aF1.3376878170641269
aF1.0776510774244117
aF0.8684309382272974
aF0.6986236626352735
aF0.5600427404445725
aF0.4477522853663205
aF0.35723210066957106
aF0.28446756668664946
aF0.22633408157254073
aF0.18029653703507528
aF0.1439181897723982
aF0.11491299295632411
aF0.09159692237273524
aF0.07286228080259263
aF0.057922433948414766
aF0.04604493796125102
aF0.03660638009484872
aF0.02911148585604316
aF0.023171077956476153
aF0.018459405178081298
aF0.014708088130890525
aF0.011715399229703237
aF0.009329962114915368
aF0.007434889414614944
aF0.005932271728374936
aF0.004738465766909316
aF0.0037847763642700695
aF0.0030104533737694886
aF0.0023826547886026876
aF0.0018864191167017028
aF0.0014941350865983424
aF0.00118369748545812
aF0.0009368163173895112
aF0.0007359998657592995
aF0.0005734486795778624
asS'Disk Component'
p9
(lp10
F191.3596453942108
aF163.7916793013412
aF140.97295760613034
aF121.73003769895092
aF104.80530864801568
aF89.60057966687505
aF76.22718609978628
aF64.91682770960044
aF55.487870161727194
aF47.268134070038215
aF40.20558939238342
aF34.41518186514399
aF29.543722022179544
aF25.389927580337126
aF21.82934027508123
aF18.76222684873821
aF16.126394129105464
aF13.86066420331781
aF11.894078347455565
aF10.174438861198267
aF8.68903508882909
aF7.411268836936354
aF6.3086110544764
aF5.365368751564952
aF4.569322465411694
aF3.900278854781603
aF3.33174787723268
aF2.841958057385247
aF2.418829139045441
aF2.057356892536829
aF1.7500517687665444
aF1.4888113052193237
aF1.2664975576676767
aF1.0780068789156707
aF0.9183827679396585
aF0.7825097057069493
aF0.6664538163260119
aF0.567296477818141
aF0.4828624053226925
aF0.4113357976342047
aF0.3507620664895158
aF0.2991034455281499
aF0.2539906220780818
aF0.21462769808160143
aF0.18134097127938908
aF0.1532267135120152
aF0.1294850312658631
aF0.10930976896912631
aF0.09158355147719352
aF0.07612836443400346
asS'1FIG J1746.4-2843'
p11
(lp12
F104.31025573757934
aF83.9289004301372
aF67.90326486273456
aF55.11959696704543
aF44.61619554786508
aF35.86112352013474
aF28.681139707522554
aF22.959578319902587
aF18.44830697718042
aF14.77577594809041
aF11.813242974343638
aF9.505132348723407
aF7.670467612313968
aF6.196696990779589
aF5.008274904626195
aF4.046460354765801
aF3.269475308061294
aF2.641671468682243
aF2.1310843596659232
aF1.713757130357238
aF1.37580953243243
aF1.1031604339371257
aF0.8827437021466599
aF0.7057405917222157
aF0.5649653279147168
aF0.45331320356166155
aF0.36401080947224473
aF0.29188800667288145
aF0.23353322164515503
aF0.1867197800463809
aF0.14930244631957187
aF0.11939638338466155
aF0.09547516628603073
aF0.07638900200112353
aF0.06117359219390978
aF0.04899624548189685
aF0.03922676372404781
aF0.03138749741119492
aF0.02511325752993262
aF0.020109300232515816
aF0.016119275710824995
aF0.012920761592738946
aF0.010315167470369514
aF0.008193633893764542
aF0.006507546585780097
aF0.005168726558485029
aF0.004105813147719085
aF0.003258238615714942
aF0.002566638301508012
aF0.002005869667987905
as.