(dp0
S'gll_iem_v05'
p1
(lp2
F655.289071306246
aF560.6067461500174
aF478.24562344608694
aF409.4553915874608
aF349.15482159042756
aF295.2881449414264
aF248.52273661976304
aF209.34115144977054
aF176.98024135759192
aF149.18938944801263
aF125.76103549766935
aF106.89760889828486
aF91.18019077905188
aF77.91847743921
aF66.72472354298526
aF57.175573558233076
aF48.99441950096857
aF41.979552629847085
aF35.90863241904638
aF30.653175726886484
aF26.34194987401751
aF22.795065001116313
aF19.686618099501292
aF17.056140638226083
aF14.87023704447255
aF12.998193402252781
aF11.394020694041945
aF10.004191007182765
aF8.772279390185194
aF7.683720932722248
aF6.7248794514468635
aF5.884034388804641
aF5.151416642173626
aF4.520913977102765
aF3.9763024637580946
aF3.498371804715023
aF3.0784851622421057
aF2.709222888835782
aF2.3844231646435907
aF2.105435624198384
aF1.8663257560131339
aF1.6548174218655385
aF1.4663467921695998
aF1.3000756349596663
aF1.1543624165428155
aF1.0252931570111226
aF0.9109427045795597
aF0.8086442476270193
aF0.7124902016812991
aF0.6223119870945486
asS'Box_Component'
p3
(lp4
F0.0
aF0.0
aF0.0
aF0.0
aF0.0
aF0.0
aF0.0
aF0.0
aF0.0
aF0.0
aF0.0
aF0.0
aF0.0
aF0.0
aF0.0
aF0.0
aF0.0
aF0.0
aF0.0
aF0.0
aF0.0
aF0.0
aF0.0
aF0.0
aF0.0
aF0.0
aF0.0
aF0.0
aF0.0
aF0.0
aF0.0
aF0.0
aF0.0
aF0.0
aF0.0
aF0.0
aF0.0
aF0.0
aF0.0
aF0.0
aF0.0
aF0.0
aF0.0
aF0.0
aF0.0
aF0.0
aF0.0
aF0.0
aF0.0
aF0.0
asS'3FGL J1745.3-2903c'
p5
(lp6
F67.76640805088815
aF50.25012658278985
aF37.468344897224576
aF28.03388901809086
aF20.919286751030455
aF15.500544014551263
aF11.427497344430009
aF8.431059272378208
aF6.2439812969375295
aF4.610460668181029
aF3.3970976970346594
aF2.5192238804753306
aF1.8738321800436866
aF1.3953043361496513
aF1.0394869686053199
aF0.7741505987843781
aF0.5765545294993327
aF0.4293880017920092
aF0.3193080594208763
aF0.23669711106368632
aF0.17515283382568664
aF0.12945952752870046
aF0.09549011743702789
aF0.07036926652555098
aF0.05192161269952709
aF0.03839960744235342
aF0.028422425207881886
aF0.02100919804767086
aF0.015494272721152266
aF0.01141909346759003
aF0.008416386313345766
aF0.006203979025856219
aF0.004572915629451343
aF0.003372449096367784
aF0.0024894302750339864
aF0.0018379025783103928
aF0.0013563554725372962
aF0.0010003954982126173
aF0.0007378051711276092
aF0.0005445573660333486
aF0.0004023603070570742
aF0.000297291479032928
aF0.00021881259858711112
aF0.00016021353708326098
aF0.00011729184259288709
aF8.587346461625493e-05
aF6.287848026391691e-05
aF4.599715901505195e-05
aF3.34087796418685e-05
aF2.404993543198768e-05
asS'1FIG J1748.2-2816'
p7
(lp8
F33.32401039713168
aF26.984637785421484
aF21.949784521346952
aF17.892396776119877
aF14.538510193855553
aF11.731107047101007
aF9.417978328043288
aF7.568010540347459
aF6.099749689690147
aF4.890587451063837
aF3.9105142554399275
aF3.1475215732225994
aF2.540689130523879
aF2.0523804295882724
aF1.6563115907492447
aF1.334544117957248
aF1.0758760542175614
aF0.8676113334824158
aF0.6984555938308669
aF0.5603021615437028
aF0.4482751371499277
aF0.357901082076193
aF0.285200998452326
aF0.22707749790986897
aF0.1810162645663149
aF0.14459452682247662
aF0.1155343435867462
aF0.09215703608495966
aF0.07335946527629449
aF0.05835876033918889
aF0.04642447595501491
aF0.03693412206822192
aF0.02939282059721013
aF0.023411492296670906
aF0.018664073877821423
aF0.014881641176339937
aF0.011861988710632635
aF0.009453359940747683
aF0.007538531413260874
aF0.0060192069671686135
aF0.004811293557139711
aF0.0038456537788532042
aF0.00306102609081557
aF0.002424388077071497
aF0.0019208130235572882
aF0.0015224486976788479
aF0.0012069780793879203
aF0.0009559139602650407
aF0.0007515310058048312
aF0.0005859620708582427
asS'Disk Component'
p9
(lp10
F160.6586607960155
aF138.9341073649166
aF120.81367961996094
aF105.39906576272878
aF91.67943773180072
aF79.18608578842533
aF68.06148791687993
aF58.561259201875934
aF50.57184536980489
aF43.52355398190557
aF37.40295680497536
aF32.34661721670212
aF28.054248070566857
aF24.35842745778633
aF21.15830855517311
aF18.37293176841056
aF15.954553776088995
aF13.85428668883395
aF12.011010230695428
aF10.380256524934419
aF8.956145512271336
aF7.717776154620625
aF6.637189219507564
aF5.702988082886928
aF4.9069346719563995
aF4.231632182016027
aF3.6520436967382204
aF3.1472368179937407
aF2.706243804780112
aF2.3255337797104194
aF1.9985520068446736
aF1.7177327166136587
aF1.4762900325656643
aF1.2695272921032055
aF1.0926878196197827
aF0.9406188062928044
aF0.8093651226647537
aF0.696042686494697
aF0.5985503226904363
aF0.5151423921570146
aF0.443807826347192
aF0.3823446880932272
aF0.32801437752430995
aF0.2800349404526311
aF0.23904167986054262
aF0.20406277077326057
aF0.17422080218495145
aF0.14858953999031657
aF0.12577154419822753
aF0.10556214171196245
asS'1FIG J1746.4-2843'
p11
(lp12
F111.70436489729722
aF89.71576695916461
aF72.45394460769522
aF58.7073485746773
aF47.434633702494416
aF38.0577782014438
aF30.383068766542916
aF24.27802212782984
aF19.472456962880088
aF15.567954718488734
aF12.424075180715745
aF9.978549393406164
aF8.037964619412604
aF6.481857074230298
aF5.229289161343261
aF4.2174017216823865
aF3.4014408562276595
aF2.743335159353193
aF2.2091060161225013
aF1.7732947690460552
aF1.421036439179632
aF1.1373685919653502
aF0.9084743689683012
aF0.7250005569562156
aF0.5793348529664625
aF0.4640033648398036
aF0.3719223262465908
aF0.297693945999923
aF0.23774853177525798
aF0.18974690087453558
aF0.15144901016365173
aF0.12089431456931912
aF0.09649845106460916
aF0.07706828086402803
aF0.06160613390690912
aF0.04925359820248315
aF0.039361624102509186
aF0.031438544455819555
aF0.025108685774183705
aF0.020069323212559356
aF0.01605818534344411
aF0.012848554465498154
aF0.010239042864542101
aF0.008118482363439419
aF0.006436218711500096
aF0.005102842938688756
aF0.004046159795812244
aF0.003205105588861382
aF0.0025202407285479537
aF0.0019660533224429722
as.